target datalayout = "e-m:e-p270:32:32-p271:32:32-p272:64:64-i64:64-i128:128-f80:128-n8:16:32:64-S128"
target triple = "x86_64-pc-linux-gnu"

%struct.___itt_global = type { [8 x i8], i64, i64, i64, i64, i64, i64, %union.pthread_mutex_t, ptr, ptr, ptr, ptr, ptr, ptr, ptr, ptr, i32, ptr, i32, ptr, ptr }
%union.pthread_mutex_t = type { %struct.__pthread_mutex_s }
%struct.__pthread_mutex_s = type { i32, i32, i32, i32, i32, i16, i16, %struct.__pthread_internal_list }
%struct.__pthread_internal_list = type { ptr, ptr }

@__itt_task_end_ex_ptr__3_0 = global ptr @_ZL26__itt_task_end_ex_init_3_0PK13___itt_domainP19___itt_clock_domainy, align 8

; Function Attrs: mustprogress sspstrong uwtable
define internal void @_ZL26__itt_task_end_ex_init_3_0PK13___itt_domainP19___itt_clock_domainy(ptr noundef %0, ptr noundef %1, i64 noundef %2) #0 {
  %4 = alloca ptr, align 8
  %5 = alloca ptr, align 8
  %6 = alloca i64, align 8
  store ptr %0, ptr %4, align 8, !tbaa !32
  store ptr %1, ptr %5, align 8, !tbaa !57
  store i64 %2, ptr %6, align 8, !tbaa !34
  %7 = load volatile i64, ptr getelementptr inbounds nuw (%struct.___itt_global, ptr @__itt__ittapi_global, i32 0, i32 4), align 8, !tbaa !3
  %8 = icmp ne i64 %7, 0
  br i1 %8, label %13, label %9

9:                                                ; preds = %3
  %10 = load ptr, ptr getelementptr inbounds nuw (%struct.___itt_global, ptr @__itt__ittapi_global, i32 0, i32 13), align 8, !tbaa !21
  %11 = icmp eq ptr %10, null
  br i1 %11, label %12, label %13

12:                                               ; preds = %9
  call void @ITT_DoOneTimeInitialization()
  br label %13

13:                                               ; preds = %12, %9, %3
  %14 = load ptr, ptr @__itt_task_end_ex_ptr__3_0, align 8, !tbaa !22
  %15 = icmp ne ptr %14, null
  br i1 %15, label %16, label %24

16:                                               ; preds = %13
  %17 = load ptr, ptr @__itt_task_end_ex_ptr__3_0, align 8, !tbaa !22
  %18 = icmp ne ptr %17, @_ZL26__itt_task_end_ex_init_3_0PK13___itt_domainP19___itt_clock_domainy
  br i1 %18, label %19, label %24

19:                                               ; preds = %16
  %20 = load ptr, ptr @__itt_task_end_ex_ptr__3_0, align 8, !tbaa !22
  %21 = load ptr, ptr %4, align 8, !tbaa !32
  %22 = load ptr, ptr %5, align 8, !tbaa !57
  %23 = load i64, ptr %6, align 8, !tbaa !34
  call void %20(ptr noundef %21, ptr noundef %22, i64 noundef %23)
  br label %25

24:                                               ; preds = %16, %13
  br label %25

25:                                               ; preds = %24, %19
  ret void
}